target datalayout = "e-m:e-p270:32:32-p271:32:32-p272:64:64-i64:64-i128:128-f80:128-n8:16:32:64-S128"
target triple = "x86_64-pc-linux-gnu"

%"class.clang::SourceLocation" = type { i32 }
%"class.llvm::raw_ostream" = type { ptr, i32, ptr, ptr, ptr, i8, i32 }
%"class.clang::FullSourceLoc" = type { %"class.clang::SourceLocation", ptr }

; Function Attrs: mustprogress nounwind uwtable
define linkonce_odr hidden noundef nonnull align 8 dereferenceable(48) ptr @_ZN4llvm11raw_ostreamlsEc(ptr noundef nonnull align 8 dereferenceable(48) %0, i8 noundef signext %1) #0 comdat align 2 {
  %3 = alloca ptr, align 8
  %4 = alloca ptr, align 8
  %5 = alloca i8, align 1
  store ptr %0, ptr %4, align 8
  store i8 %1, ptr %5, align 1
  %6 = load ptr, ptr %4, align 8
  %7 = getelementptr inbounds nuw %"class.llvm::raw_ostream", ptr %6, i32 0, i32 4
  %8 = load ptr, ptr %7, align 8
  %9 = getelementptr inbounds nuw %"class.llvm::raw_ostream", ptr %6, i32 0, i32 3
  %10 = load ptr, ptr %9, align 8
  %11 = icmp uge ptr %8, %10
  br i1 %11, label %12, label %15

12:                                               ; preds = %2
  %13 = load i8, ptr %5, align 1
  %14 = call noundef nonnull align 8 dereferenceable(48) ptr @_ZN4llvm11raw_ostream5writeEh(ptr noundef nonnull align 8 dereferenceable(48) %6, i8 noundef zeroext %13)
  store ptr %14, ptr %3, align 8
  br label %20

15:                                               ; preds = %2
  %16 = load i8, ptr %5, align 1
  %17 = getelementptr inbounds nuw %"class.llvm::raw_ostream", ptr %6, i32 0, i32 4
  %18 = load ptr, ptr %17, align 8
  %19 = getelementptr inbounds i8, ptr %18, i32 1
  store ptr %19, ptr %17, align 8
  store i8 %16, ptr %18, align 1
  store ptr %6, ptr %3, align 8
  br label %20

20:                                               ; preds = %15, %12
  %21 = load ptr, ptr %3, align 8
  ret ptr %21
}

; Function Attrs: mustprogress nounwind uwtable
define dso_local void @_ZNK5clang14SourceLocation4dumpERKNS_13SourceManagerE(ptr noundef nonnull align 4 dereferenceable(4) %0, ptr noundef nonnull align 8 dereferenceable(696) %1) #0 align 2 {
  %3 = alloca ptr, align 8
  %4 = alloca ptr, align 8
  store ptr %0, ptr %3, align 8
  store ptr %1, ptr %4, align 8
  %5 = load ptr, ptr %3, align 8
  %6 = call noundef nonnull align 8 dereferenceable(96) ptr @_ZN4llvm4errsEv()
  %7 = load ptr, ptr %4, align 8
  call void @_ZNK5clang14SourceLocation5printERN4llvm11raw_ostreamERKNS_13SourceManagerE(ptr noundef nonnull align 4 dereferenceable(4) %5, ptr noundef nonnull align 8 dereferenceable(48) %6, ptr noundef nonnull align 8 dereferenceable(696) %7)
  %8 = call noundef nonnull align 8 dereferenceable(96) ptr @_ZN4llvm4errsEv()
  %9 = call noundef nonnull align 8 dereferenceable(48) ptr @_ZN4llvm11raw_ostreamlsEc(ptr noundef nonnull align 8 dereferenceable(48) %8, i8 noundef signext 10)
  ret void
}

; Function Attrs: mustprogress nounwind uwtable
define dso_local void @_ZNK5clang13FullSourceLoc4dumpEv(ptr noundef nonnull align 8 dereferenceable(16) %0) #0 align 2 {
  %2 = alloca ptr, align 8
  store ptr %0, ptr %2, align 8
  %3 = load ptr, ptr %2, align 8
  %4 = getelementptr inbounds nuw %"class.clang::FullSourceLoc", ptr %3, i32 0, i32 1
  %5 = load ptr, ptr %4, align 8
  call void @_ZNK5clang14SourceLocation4dumpERKNS_13SourceManagerE(ptr noundef nonnull align 4 dereferenceable(4) %3, ptr noundef nonnull align 8 dereferenceable(696) %5)
  ret void
}