; Function Attrs: mustprogress nounwind uwtable
define dso_local void @_ZNK5clang13FullSourceLoc4dumpEv(ptr nocapture noundef nonnull readonly align 8 dereferenceable(16) %0) local_unnamed_addr #0 align 2 {
  %2 = getelementptr inbounds nuw i8, ptr %0, i64 8
  %3 = load ptr, ptr %2, align 8
  %4 = tail call noundef nonnull align 8 dereferenceable(96) ptr @_ZN4llvm4errsEv() #10
  tail call void @_ZNK5clang14SourceLocation5printERN4llvm11raw_ostreamERKNS_13SourceManagerE(ptr noundef nonnull readonly align 4 dereferenceable(4) %0, ptr noundef nonnull align 8 dereferenceable(48) %4, ptr noundef nonnull align 8 dereferenceable(696) %3)
  %5 = tail call noundef nonnull align 8 dereferenceable(96) ptr @_ZN4llvm4errsEv() #10
  %6 = getelementptr inbounds nuw i8, ptr %5, i64 32
  %7 = load ptr, ptr %6, align 8
  %8 = getelementptr inbounds nuw i8, ptr %5, i64 24
  %9 = load ptr, ptr %8, align 8
  %.not.i.i = icmp ult ptr %7, %9
  br i1 %.not.i.i, label %12, label %10

10:                                               ; preds = %1
  %11 = tail call noundef nonnull align 8 dereferenceable(48) ptr @_ZN4llvm11raw_ostream5writeEh(ptr noundef nonnull align 8 dereferenceable(48) %5, i8 noundef zeroext 10) #10
  br label %_ZNK5clang14SourceLocation4dumpERKNS_13SourceManagerE.exit

12:                                               ; preds = %1
  %13 = getelementptr inbounds i8, ptr %7, i64 1
  store ptr %13, ptr %6, align 8
  store i8 10, ptr %7, align 1
  br label %_ZNK5clang14SourceLocation4dumpERKNS_13SourceManagerE.exit

_ZNK5clang14SourceLocation4dumpERKNS_13SourceManagerE.exit: ; preds = %10, %12
  ret void
}